target datalayout = "e-m:e-p270:32:32-p271:32:32-p272:64:64-i64:64-i128:128-f80:128-n8:16:32:64-S128"
target triple = "x86_64-pc-linux-gnu"

%struct.FontFamilyMetrics = type { ptr, double, [128 x i16], [128 x i16], [128 x i16], [128 x i16] }

@estimate_character_width_canonical.warning_already_reported = internal global i8 0, align 1
@.str.53 = private unnamed_addr constant [97 x i8] c"Warning: no value for width of non-ASCII character %u. Falling back to width of space character\0A\00", align 1
@estimate_character_width_canonical.warning_already_reported.54 = internal global i8 0, align 1
@.str.55 = private unnamed_addr constant [70 x i8] c"Warning: no value for width of ASCII character %u. Falling back to 0\0A\00", align 1

; Function Attrs: nounwind uwtable
define internal zeroext i16 @estimate_character_width_canonical(ptr noundef %0, i32 noundef %1) #0 {
  %3 = alloca ptr, align 8
  %4 = alloca i32, align 4
  %5 = alloca i16, align 2
  store ptr %0, ptr %3, align 8, !tbaa !14
  store i32 %1, ptr %4, align 4, !tbaa !16
  %6 = load i32, ptr %4, align 4, !tbaa !16
  %7 = icmp uge i32 %6, 128
  br i1 %7, label %8, label %14

8:                                                ; preds = %2
  %9 = load i8, ptr @estimate_character_width_canonical.warning_already_reported, align 1, !tbaa !8, !range !12, !noundef !13
  %10 = trunc i8 %9 to i1
  br i1 %10, label %13, label %11

11:                                               ; preds = %8
  store i8 1, ptr @estimate_character_width_canonical.warning_already_reported, align 1, !tbaa !8
  %12 = load i32, ptr %4, align 4, !tbaa !16
  call void (ptr, ...) @agwarningf(ptr noundef @.str.53, i32 noundef %12)
  br label %13

13:                                               ; preds = %11, %8
  store i32 32, ptr %4, align 4, !tbaa !16
  br label %14

14:                                               ; preds = %13, %2
  call void @llvm.lifetime.start.p0(i64 2, ptr %5) #14
  %15 = load ptr, ptr %3, align 8, !tbaa !14
  %16 = load i32, ptr %4, align 4, !tbaa !16
  %17 = zext i32 %16 to i64
  %18 = getelementptr inbounds nuw i16, ptr %15, i64 %17
  %19 = load i16, ptr %18, align 2, !tbaa !29
  store i16 %19, ptr %5, align 2, !tbaa !29
  %20 = load i16, ptr %5, align 2, !tbaa !29
  %21 = sext i16 %20 to i32
  %22 = icmp eq i32 %21, -1
  br i1 %22, label %23, label %29

23:                                               ; preds = %14
  %24 = load i8, ptr @estimate_character_width_canonical.warning_already_reported.54, align 1, !tbaa !8, !range !12, !noundef !13
  %25 = trunc i8 %24 to i1
  br i1 %25, label %28, label %26

26:                                               ; preds = %23
  store i8 1, ptr @estimate_character_width_canonical.warning_already_reported.54, align 1, !tbaa !8
  %27 = load i32, ptr %4, align 4, !tbaa !16
  call void (ptr, ...) @agwarningf(ptr noundef @.str.55, i32 noundef %27)
  br label %28

28:                                               ; preds = %26, %23
  store i16 0, ptr %5, align 2, !tbaa !29
  br label %29

29:                                               ; preds = %28, %14
  %30 = load i16, ptr %5, align 2, !tbaa !29
  call void @llvm.lifetime.end.p0(i64 2, ptr %5) #14
  ret i16 %30
}

; Function Attrs: nounwind uwtable
define internal ptr @get_metrics_for_font_variant(ptr noundef %0, i1 noundef zeroext %1, i1 noundef zeroext %2) #0 {
  %4 = alloca ptr, align 8
  %5 = alloca ptr, align 8
  %6 = alloca i8, align 1
  %7 = alloca i8, align 1
  store ptr %0, ptr %5, align 8, !tbaa !10
  %8 = zext i1 %1 to i8
  store i8 %8, ptr %6, align 1, !tbaa !8
  %9 = zext i1 %2 to i8
  store i8 %9, ptr %7, align 1, !tbaa !8
  %10 = load i8, ptr %6, align 1, !tbaa !8, !range !12, !noundef !13
  %11 = trunc i8 %10 to i1
  br i1 %11, label %12, label %19

12:                                               ; preds = %3
  %13 = load i8, ptr %7, align 1, !tbaa !8, !range !12, !noundef !13
  %14 = trunc i8 %13 to i1
  br i1 %14, label %15, label %19

15:                                               ; preds = %12
  %16 = load ptr, ptr %5, align 8, !tbaa !10
  %17 = getelementptr inbounds nuw %struct.FontFamilyMetrics, ptr %16, i32 0, i32 5
  %18 = getelementptr inbounds [128 x i16], ptr %17, i64 0, i64 0
  store ptr %18, ptr %4, align 8
  br label %37

19:                                               ; preds = %12, %3
  %20 = load i8, ptr %6, align 1, !tbaa !8, !range !12, !noundef !13
  %21 = trunc i8 %20 to i1
  br i1 %21, label %22, label %26

22:                                               ; preds = %19
  %23 = load ptr, ptr %5, align 8, !tbaa !10
  %24 = getelementptr inbounds nuw %struct.FontFamilyMetrics, ptr %23, i32 0, i32 3
  %25 = getelementptr inbounds [128 x i16], ptr %24, i64 0, i64 0
  store ptr %25, ptr %4, align 8
  br label %37

26:                                               ; preds = %19
  %27 = load i8, ptr %7, align 1, !tbaa !8, !range !12, !noundef !13
  %28 = trunc i8 %27 to i1
  br i1 %28, label %29, label %33

29:                                               ; preds = %26
  %30 = load ptr, ptr %5, align 8, !tbaa !10
  %31 = getelementptr inbounds nuw %struct.FontFamilyMetrics, ptr %30, i32 0, i32 4
  %32 = getelementptr inbounds [128 x i16], ptr %31, i64 0, i64 0
  store ptr %32, ptr %4, align 8
  br label %37

33:                                               ; preds = %26
  %34 = load ptr, ptr %5, align 8, !tbaa !10
  %35 = getelementptr inbounds nuw %struct.FontFamilyMetrics, ptr %34, i32 0, i32 2
  %36 = getelementptr inbounds [128 x i16], ptr %35, i64 0, i64 0
  store ptr %36, ptr %4, align 8
  br label %37

37:                                               ; preds = %33, %29, %22, %15
  %38 = load ptr, ptr %4, align 8
  ret ptr %38
}

; Function Attrs: nounwind uwtable
define double @estimate_text_width_1pt(ptr noundef %0, ptr noundef %1, i1 noundef zeroext %2, i1 noundef zeroext %3) #0 {
  %5 = alloca ptr, align 8
  %6 = alloca ptr, align 8
  %7 = alloca i8, align 1
  %8 = alloca i8, align 1
  %9 = alloca ptr, align 8
  %10 = alloca ptr, align 8
  %11 = alloca i32, align 4
  %12 = alloca ptr, align 8
  store ptr %0, ptr %5, align 8, !tbaa !3
  store ptr %1, ptr %6, align 8, !tbaa !3
  %13 = zext i1 %2 to i8
  store i8 %13, ptr %7, align 1, !tbaa !8
  %14 = zext i1 %3 to i8
  store i8 %14, ptr %8, align 1, !tbaa !8
  call void @llvm.lifetime.start.p0(i64 8, ptr %9) #14
  %15 = load ptr, ptr %5, align 8, !tbaa !3
  %16 = call ptr @get_metrics_for_font_family(ptr noundef %15)
  store ptr %16, ptr %9, align 8, !tbaa !10
  call void @llvm.lifetime.start.p0(i64 8, ptr %10) #14
  %17 = load ptr, ptr %9, align 8, !tbaa !10
  %18 = load i8, ptr %7, align 1, !tbaa !8, !range !12, !noundef !13
  %19 = trunc i8 %18 to i1
  %20 = load i8, ptr %8, align 1, !tbaa !8, !range !12, !noundef !13
  %21 = trunc i8 %20 to i1
  %22 = call ptr @get_metrics_for_font_variant(ptr noundef %17, i1 noundef zeroext %19, i1 noundef zeroext %21)
  store ptr %22, ptr %10, align 8, !tbaa !14
  call void @llvm.lifetime.start.p0(i64 4, ptr %11) #14
  store i32 0, ptr %11, align 4, !tbaa !16
  call void @llvm.lifetime.start.p0(i64 8, ptr %12) #14
  %23 = load ptr, ptr %6, align 8, !tbaa !3
  store ptr %23, ptr %12, align 8, !tbaa !3
  br label %24

24:                                               ; preds = %39, %4
  %25 = load ptr, ptr %12, align 8, !tbaa !3
  %26 = load i8, ptr %25, align 1, !tbaa !18
  %27 = sext i8 %26 to i32
  %28 = icmp ne i32 %27, 0
  br i1 %28, label %30, label %29

29:                                               ; preds = %24
  call void @llvm.lifetime.end.p0(i64 8, ptr %12) #14
  br label %42

30:                                               ; preds = %24
  %31 = load ptr, ptr %10, align 8, !tbaa !14
  %32 = load ptr, ptr %12, align 8, !tbaa !3
  %33 = load i8, ptr %32, align 1, !tbaa !18
  %34 = zext i8 %33 to i32
  %35 = call zeroext i16 @estimate_character_width_canonical(ptr noundef %31, i32 noundef %34)
  %36 = zext i16 %35 to i32
  %37 = load i32, ptr %11, align 4, !tbaa !16
  %38 = add i32 %37, %36
  store i32 %38, ptr %11, align 4, !tbaa !16
  br label %39

39:                                               ; preds = %30
  %40 = load ptr, ptr %12, align 8, !tbaa !3
  %41 = getelementptr inbounds nuw i8, ptr %40, i32 1
  store ptr %41, ptr %12, align 8, !tbaa !3
  br label %24, !llvm.loop !19

42:                                               ; preds = %29
  %43 = load i32, ptr %11, align 4, !tbaa !16
  %44 = uitofp i32 %43 to double
  %45 = load ptr, ptr %9, align 8, !tbaa !10
  %46 = getelementptr inbounds nuw %struct.FontFamilyMetrics, ptr %45, i32 0, i32 1
  %47 = load double, ptr %46, align 8, !tbaa !21
  %48 = fdiv double %44, %47
  call void @llvm.lifetime.end.p0(i64 4, ptr %11) #14
  call void @llvm.lifetime.end.p0(i64 8, ptr %10) #14
  call void @llvm.lifetime.end.p0(i64 8, ptr %9) #14
  ret double %48
}