; Function Attrs: nounwind uwtable
define double @estimate_text_width_1pt(ptr noundef %0, ptr noundef readonly captures(none) %1, i1 noundef zeroext %2, i1 noundef zeroext %3) local_unnamed_addr #0 {
  %5 = tail call fastcc ptr @get_metrics_for_font_family(ptr noundef %0)
  %..i = select i1 %3, i64 528, i64 16
  %spec.select.i = select i1 %3, i64 784, i64 272
  %.sink.i = select i1 %2, i64 %spec.select.i, i64 %..i
  %6 = getelementptr inbounds nuw i8, ptr %5, i64 %.sink.i
  %7 = load i8, ptr %1, align 1, !tbaa !3
  %.not12 = icmp eq i8 %7, 0
  br i1 %.not12, label %._crit_edge, label %.lr.ph

._crit_edge.loopexit:                             ; preds = %estimate_character_width_canonical.exit
  %8 = uitofp i32 %25 to double
  br label %._crit_edge

._crit_edge:                                      ; preds = %._crit_edge.loopexit, %4
  %.011.lcssa = phi double [ 0.000000e+00, %4 ], [ %8, %._crit_edge.loopexit ]
  %9 = getelementptr inbounds nuw i8, ptr %5, i64 8
  %10 = load double, ptr %9, align 8, !tbaa !6
  %11 = fdiv double %.011.lcssa, %10
  ret double %11

.lr.ph:                                           ; preds = %4, %estimate_character_width_canonical.exit
  %12 = phi i8 [ %27, %estimate_character_width_canonical.exit ], [ %7, %4 ]
  %.014 = phi ptr [ %26, %estimate_character_width_canonical.exit ], [ %1, %4 ]
  %.01113 = phi i32 [ %25, %estimate_character_width_canonical.exit ], [ 0, %4 ]
  %13 = zext i8 %12 to i32
  %14 = icmp slt i8 %12, 0
  br i1 %14, label %15, label %17

15:                                               ; preds = %.lr.ph
  %.b9.i = load i1, ptr @estimate_character_width_canonical.warning_already_reported, align 1
  br i1 %.b9.i, label %17, label %16

16:                                               ; preds = %15
  store i1 true, ptr @estimate_character_width_canonical.warning_already_reported, align 1
  tail call void (ptr, ...) @agwarningf(ptr noundef nonnull @.str.53, i32 noundef range(i32 0, 256) %13) #16
  br label %17

17:                                               ; preds = %16, %15, %.lr.ph
  %.06.i = phi i32 [ %13, %.lr.ph ], [ 32, %16 ], [ 32, %15 ]
  %18 = zext nneg i32 %.06.i to i64
  %19 = getelementptr inbounds nuw i16, ptr %6, i64 %18
  %20 = load i16, ptr %19, align 2, !tbaa !11
  %21 = icmp eq i16 %20, -1
  br i1 %21, label %22, label %estimate_character_width_canonical.exit

22:                                               ; preds = %17
  %.b810.i = load i1, ptr @estimate_character_width_canonical.warning_already_reported.54, align 1
  br i1 %.b810.i, label %estimate_character_width_canonical.exit, label %23

23:                                               ; preds = %22
  store i1 true, ptr @estimate_character_width_canonical.warning_already_reported.54, align 1
  tail call void (ptr, ...) @agwarningf(ptr noundef nonnull @.str.55, i32 noundef %.06.i) #16
  br label %estimate_character_width_canonical.exit

estimate_character_width_canonical.exit:          ; preds = %17, %22, %23
  %.0.i = phi i16 [ %20, %17 ], [ 0, %23 ], [ 0, %22 ]
  %24 = zext i16 %.0.i to i32
  %25 = add i32 %.01113, %24
  %26 = getelementptr inbounds nuw i8, ptr %.014, i64 1
  %27 = load i8, ptr %26, align 1, !tbaa !3
  %.not = icmp eq i8 %27, 0
  br i1 %.not, label %._crit_edge.loopexit, label %.lr.ph, !llvm.loop !13
}